target datalayout = "e-m:e-p270:32:32-p271:32:32-p272:64:64-i64:64-i128:128-f80:128-n8:16:32:64-S128"
target triple = "x86_64-pc-linux-gnu"

%struct.IDAMemRec = type { ptr, double, ptr, ptr, i32, double, double, ptr, i32, i32, ptr, ptr, i32, i32, [6 x ptr], [6 x double], [6 x double], [6 x double], [6 x double], [6 x double], ptr, ptr, ptr, ptr, ptr, ptr, ptr, ptr, ptr, ptr, ptr, ptr, ptr, ptr, ptr, ptr, ptr, double, ptr, ptr, i32, i32, i32, i32, i32, i32, i32, i32, double, double, double, i32, double, i32, i32, i32, i32, i32, double, double, double, double, double, double, double, double, double, double, double, double, double, double, double, double, i32, i32, i32, i32, i64, double, double, double, double, double, double, double, double, double, i64, i64, i64, i64, i64, i64, i64, i64, i64, i64, i64, double, i32, i32, i32, i32, i32, ptr, i32, ptr, ptr, ptr, ptr, ptr, ptr, ptr, double, i32, ptr, i32, ptr, ptr, double, double, double, ptr, ptr, ptr, double, double, i32, i32, i64, ptr, i32, [6 x double], [5 x double], [6 x ptr], [6 x ptr] }
%struct.IDALsMemRec = type { i32, i32, i32, ptr, ptr, ptr, ptr, ptr, ptr, ptr, ptr, ptr, ptr, i32, double, double, double, i64, i64, i64, i64, i64, i64, i64, i64, i64, i64, i64, i64, i64, i64, double, i32, ptr, ptr, ptr, ptr, i32, ptr, ptr, ptr, ptr }

; Function Attrs: nounwind uwtable
define i32 @idaLsDenseDQJac(double noundef %0, double noundef %1, ptr noundef %2, ptr noundef %3, ptr noundef %4, ptr noundef %5, ptr noundef %6, ptr noundef %7) #0 {
  %9 = alloca double, align 8
  %10 = alloca double, align 8
  %11 = alloca ptr, align 8
  %12 = alloca ptr, align 8
  %13 = alloca ptr, align 8
  %14 = alloca ptr, align 8
  %15 = alloca ptr, align 8
  %16 = alloca ptr, align 8
  %17 = alloca double, align 8
  %18 = alloca double, align 8
  %19 = alloca double, align 8
  %20 = alloca double, align 8
  %21 = alloca double, align 8
  %22 = alloca double, align 8
  %23 = alloca ptr, align 8
  %24 = alloca ptr, align 8
  %25 = alloca ptr, align 8
  %26 = alloca ptr, align 8
  %27 = alloca ptr, align 8
  %28 = alloca ptr, align 8
  %29 = alloca i64, align 8
  %30 = alloca i64, align 8
  %31 = alloca ptr, align 8
  %32 = alloca i32, align 4
  store double %0, ptr %9, align 8, !tbaa !92
  store double %1, ptr %10, align 8, !tbaa !92
  store ptr %2, ptr %11, align 8, !tbaa !81
  store ptr %3, ptr %12, align 8, !tbaa !81
  store ptr %4, ptr %13, align 8, !tbaa !81
  store ptr %5, ptr %14, align 8, !tbaa !9
  store ptr %6, ptr %15, align 8, !tbaa !11
  store ptr %7, ptr %16, align 8, !tbaa !81
  call void @llvm.lifetime.start.p0(i64 8, ptr %17) #7
  call void @llvm.lifetime.start.p0(i64 8, ptr %18) #7
  call void @llvm.lifetime.start.p0(i64 8, ptr %19) #7
  call void @llvm.lifetime.start.p0(i64 8, ptr %20) #7
  call void @llvm.lifetime.start.p0(i64 8, ptr %21) #7
  call void @llvm.lifetime.start.p0(i64 8, ptr %22) #7
  call void @llvm.lifetime.start.p0(i64 8, ptr %23) #7
  call void @llvm.lifetime.start.p0(i64 8, ptr %24) #7
  call void @llvm.lifetime.start.p0(i64 8, ptr %25) #7
  call void @llvm.lifetime.start.p0(i64 8, ptr %26) #7
  store ptr null, ptr %26, align 8, !tbaa !125
  call void @llvm.lifetime.start.p0(i64 8, ptr %27) #7
  call void @llvm.lifetime.start.p0(i64 8, ptr %28) #7
  call void @llvm.lifetime.start.p0(i64 8, ptr %29) #7
  call void @llvm.lifetime.start.p0(i64 8, ptr %30) #7
  call void @llvm.lifetime.start.p0(i64 8, ptr %31) #7
  call void @llvm.lifetime.start.p0(i64 4, ptr %32) #7
  store i32 0, ptr %32, align 4, !tbaa !20
  %33 = load ptr, ptr %15, align 8, !tbaa !11
  %34 = getelementptr inbounds nuw %struct.IDAMemRec, ptr %33, i32 0, i32 113
  %35 = load ptr, ptr %34, align 8, !tbaa !75
  store ptr %35, ptr %31, align 8, !tbaa !45
  %36 = load ptr, ptr %14, align 8, !tbaa !9
  %37 = call i64 @SUNDenseMatrix_Columns(ptr noundef %36)
  store i64 %37, ptr %30, align 8, !tbaa !91
  %38 = load ptr, ptr %16, align 8, !tbaa !81
  store ptr %38, ptr %27, align 8, !tbaa !81
  %39 = load ptr, ptr %16, align 8, !tbaa !81
  %40 = call ptr @N_VCloneEmpty(ptr noundef %39)
  store ptr %40, ptr %28, align 8, !tbaa !81
  %41 = load ptr, ptr %15, align 8, !tbaa !11
  %42 = getelementptr inbounds nuw %struct.IDAMemRec, ptr %41, i32 0, i32 20
  %43 = load ptr, ptr %42, align 8, !tbaa !113
  %44 = call ptr @N_VGetArrayPointer(ptr noundef %43)
  store ptr %44, ptr %25, align 8, !tbaa !125
  %45 = load ptr, ptr %11, align 8, !tbaa !81
  %46 = call ptr @N_VGetArrayPointer(ptr noundef %45)
  store ptr %46, ptr %23, align 8, !tbaa !125
  %47 = load ptr, ptr %12, align 8, !tbaa !81
  %48 = call ptr @N_VGetArrayPointer(ptr noundef %47)
  store ptr %48, ptr %24, align 8, !tbaa !125
  %49 = load ptr, ptr %15, align 8, !tbaa !11
  %50 = getelementptr inbounds nuw %struct.IDAMemRec, ptr %49, i32 0, i32 12
  %51 = load i32, ptr %50, align 8, !tbaa !131
  %52 = icmp ne i32 %51, 0
  br i1 %52, label %53, label %58

53:                                               ; preds = %8
  %54 = load ptr, ptr %15, align 8, !tbaa !11
  %55 = getelementptr inbounds nuw %struct.IDAMemRec, ptr %54, i32 0, i32 27
  %56 = load ptr, ptr %55, align 8, !tbaa !132
  %57 = call ptr @N_VGetArrayPointer(ptr noundef %56)
  store ptr %57, ptr %26, align 8, !tbaa !125
  br label %58

58:                                               ; preds = %53, %8
  %59 = load ptr, ptr %15, align 8, !tbaa !11
  %60 = getelementptr inbounds nuw %struct.IDAMemRec, ptr %59, i32 0, i32 1
  %61 = load double, ptr %60, align 8, !tbaa !133
  %62 = fcmp ole double %61, 0.000000e+00
  br i1 %62, label %63, label %64

63:                                               ; preds = %58
  br label %69

64:                                               ; preds = %58
  %65 = load ptr, ptr %15, align 8, !tbaa !11
  %66 = getelementptr inbounds nuw %struct.IDAMemRec, ptr %65, i32 0, i32 1
  %67 = load double, ptr %66, align 8, !tbaa !133
  %68 = call double @sqrt(double noundef %67) #7, !tbaa !20
  br label %69

69:                                               ; preds = %64, %63
  %70 = phi double [ 0.000000e+00, %63 ], [ %68, %64 ]
  store double %70, ptr %21, align 8, !tbaa !92
  store i64 0, ptr %29, align 8, !tbaa !91
  br label %71

71:                                               ; preds = %253, %69
  %72 = load i64, ptr %29, align 8, !tbaa !91
  %73 = load i64, ptr %30, align 8, !tbaa !91
  %74 = icmp slt i64 %72, %73
  br i1 %74, label %75, label %256

75:                                               ; preds = %71
  %76 = load ptr, ptr %14, align 8, !tbaa !9
  %77 = load i64, ptr %29, align 8, !tbaa !91
  %78 = call ptr @SUNDenseMatrix_Column(ptr noundef %76, i64 noundef %77)
  %79 = load ptr, ptr %28, align 8, !tbaa !81
  call void @N_VSetArrayPointer(ptr noundef %78, ptr noundef %79)
  %80 = load ptr, ptr %23, align 8, !tbaa !125
  %81 = load i64, ptr %29, align 8, !tbaa !91
  %82 = getelementptr inbounds double, ptr %80, i64 %81
  %83 = load double, ptr %82, align 8, !tbaa !92
  store double %83, ptr %19, align 8, !tbaa !92
  %84 = load ptr, ptr %24, align 8, !tbaa !125
  %85 = load i64, ptr %29, align 8, !tbaa !91
  %86 = getelementptr inbounds double, ptr %84, i64 %85
  %87 = load double, ptr %86, align 8, !tbaa !92
  store double %87, ptr %20, align 8, !tbaa !92
  %88 = load double, ptr %21, align 8, !tbaa !92
  %89 = load double, ptr %19, align 8, !tbaa !92
  %90 = call double @llvm.fabs.f64(double %89)
  %91 = load ptr, ptr %15, align 8, !tbaa !11
  %92 = getelementptr inbounds nuw %struct.IDAMemRec, ptr %91, i32 0, i32 60
  %93 = load double, ptr %92, align 8, !tbaa !134
  %94 = load double, ptr %20, align 8, !tbaa !92
  %95 = fmul double %93, %94
  %96 = call double @llvm.fabs.f64(double %95)
  %97 = fcmp ogt double %90, %96
  br i1 %97, label %98, label %101

98:                                               ; preds = %75
  %99 = load double, ptr %19, align 8, !tbaa !92
  %100 = call double @llvm.fabs.f64(double %99)
  br label %108

101:                                              ; preds = %75
  %102 = load ptr, ptr %15, align 8, !tbaa !11
  %103 = getelementptr inbounds nuw %struct.IDAMemRec, ptr %102, i32 0, i32 60
  %104 = load double, ptr %103, align 8, !tbaa !134
  %105 = load double, ptr %20, align 8, !tbaa !92
  %106 = fmul double %104, %105
  %107 = call double @llvm.fabs.f64(double %106)
  br label %108

108:                                              ; preds = %101, %98
  %109 = phi double [ %100, %98 ], [ %107, %101 ]
  %110 = fmul double %88, %109
  %111 = load ptr, ptr %25, align 8, !tbaa !125
  %112 = load i64, ptr %29, align 8, !tbaa !91
  %113 = getelementptr inbounds double, ptr %111, i64 %112
  %114 = load double, ptr %113, align 8, !tbaa !92
  %115 = fdiv double 1.000000e+00, %114
  %116 = fcmp ogt double %110, %115
  br i1 %116, label %117, label %141

117:                                              ; preds = %108
  %118 = load double, ptr %21, align 8, !tbaa !92
  %119 = load double, ptr %19, align 8, !tbaa !92
  %120 = call double @llvm.fabs.f64(double %119)
  %121 = load ptr, ptr %15, align 8, !tbaa !11
  %122 = getelementptr inbounds nuw %struct.IDAMemRec, ptr %121, i32 0, i32 60
  %123 = load double, ptr %122, align 8, !tbaa !134
  %124 = load double, ptr %20, align 8, !tbaa !92
  %125 = fmul double %123, %124
  %126 = call double @llvm.fabs.f64(double %125)
  %127 = fcmp ogt double %120, %126
  br i1 %127, label %128, label %131

128:                                              ; preds = %117
  %129 = load double, ptr %19, align 8, !tbaa !92
  %130 = call double @llvm.fabs.f64(double %129)
  br label %138

131:                                              ; preds = %117
  %132 = load ptr, ptr %15, align 8, !tbaa !11
  %133 = getelementptr inbounds nuw %struct.IDAMemRec, ptr %132, i32 0, i32 60
  %134 = load double, ptr %133, align 8, !tbaa !134
  %135 = load double, ptr %20, align 8, !tbaa !92
  %136 = fmul double %134, %135
  %137 = call double @llvm.fabs.f64(double %136)
  br label %138

138:                                              ; preds = %131, %128
  %139 = phi double [ %130, %128 ], [ %137, %131 ]
  %140 = fmul double %118, %139
  br label %147

141:                                              ; preds = %108
  %142 = load ptr, ptr %25, align 8, !tbaa !125
  %143 = load i64, ptr %29, align 8, !tbaa !91
  %144 = getelementptr inbounds double, ptr %142, i64 %143
  %145 = load double, ptr %144, align 8, !tbaa !92
  %146 = fdiv double 1.000000e+00, %145
  br label %147

147:                                              ; preds = %141, %138
  %148 = phi double [ %140, %138 ], [ %146, %141 ]
  store double %148, ptr %17, align 8, !tbaa !92
  %149 = load ptr, ptr %15, align 8, !tbaa !11
  %150 = getelementptr inbounds nuw %struct.IDAMemRec, ptr %149, i32 0, i32 60
  %151 = load double, ptr %150, align 8, !tbaa !134
  %152 = load double, ptr %20, align 8, !tbaa !92
  %153 = fmul double %151, %152
  %154 = fcmp olt double %153, 0.000000e+00
  br i1 %154, label %155, label %158

155:                                              ; preds = %147
  %156 = load double, ptr %17, align 8, !tbaa !92
  %157 = fneg double %156
  store double %157, ptr %17, align 8, !tbaa !92
  br label %158

158:                                              ; preds = %155, %147
  %159 = load double, ptr %19, align 8, !tbaa !92
  %160 = load double, ptr %17, align 8, !tbaa !92
  %161 = fadd double %159, %160
  %162 = load double, ptr %19, align 8, !tbaa !92
  %163 = fsub double %161, %162
  store double %163, ptr %17, align 8, !tbaa !92
  %164 = load ptr, ptr %15, align 8, !tbaa !11
  %165 = getelementptr inbounds nuw %struct.IDAMemRec, ptr %164, i32 0, i32 12
  %166 = load i32, ptr %165, align 8, !tbaa !131
  %167 = icmp ne i32 %166, 0
  br i1 %167, label %168, label %204

168:                                              ; preds = %158
  %169 = load ptr, ptr %26, align 8, !tbaa !125
  %170 = load i64, ptr %29, align 8, !tbaa !91
  %171 = getelementptr inbounds double, ptr %169, i64 %170
  %172 = load double, ptr %171, align 8, !tbaa !92
  store double %172, ptr %22, align 8, !tbaa !92
  %173 = load double, ptr %22, align 8, !tbaa !92
  %174 = call double @llvm.fabs.f64(double %173)
  %175 = fcmp oeq double %174, 1.000000e+00
  br i1 %175, label %176, label %187

176:                                              ; preds = %168
  %177 = load double, ptr %19, align 8, !tbaa !92
  %178 = load double, ptr %17, align 8, !tbaa !92
  %179 = fadd double %177, %178
  %180 = load double, ptr %22, align 8, !tbaa !92
  %181 = fmul double %179, %180
  %182 = fcmp olt double %181, 0.000000e+00
  br i1 %182, label %183, label %186

183:                                              ; preds = %176
  %184 = load double, ptr %17, align 8, !tbaa !92
  %185 = fneg double %184
  store double %185, ptr %17, align 8, !tbaa !92
  br label %186

186:                                              ; preds = %183, %176
  br label %203

187:                                              ; preds = %168
  %188 = load double, ptr %22, align 8, !tbaa !92
  %189 = call double @llvm.fabs.f64(double %188)
  %190 = fcmp oeq double %189, 2.000000e+00
  br i1 %190, label %191, label %202

191:                                              ; preds = %187
  %192 = load double, ptr %19, align 8, !tbaa !92
  %193 = load double, ptr %17, align 8, !tbaa !92
  %194 = fadd double %192, %193
  %195 = load double, ptr %22, align 8, !tbaa !92
  %196 = fmul double %194, %195
  %197 = fcmp ole double %196, 0.000000e+00
  br i1 %197, label %198, label %201

198:                                              ; preds = %191
  %199 = load double, ptr %17, align 8, !tbaa !92
  %200 = fneg double %199
  store double %200, ptr %17, align 8, !tbaa !92
  br label %201

201:                                              ; preds = %198, %191
  br label %202

202:                                              ; preds = %201, %187
  br label %203

203:                                              ; preds = %202, %186
  br label %204

204:                                              ; preds = %203, %158
  %205 = load double, ptr %17, align 8, !tbaa !92
  %206 = load ptr, ptr %23, align 8, !tbaa !125
  %207 = load i64, ptr %29, align 8, !tbaa !91
  %208 = getelementptr inbounds double, ptr %206, i64 %207
  %209 = load double, ptr %208, align 8, !tbaa !92
  %210 = fadd double %209, %205
  store double %210, ptr %208, align 8, !tbaa !92
  %211 = load double, ptr %10, align 8, !tbaa !92
  %212 = load double, ptr %17, align 8, !tbaa !92
  %213 = load ptr, ptr %24, align 8, !tbaa !125
  %214 = load i64, ptr %29, align 8, !tbaa !91
  %215 = getelementptr inbounds double, ptr %213, i64 %214
  %216 = load double, ptr %215, align 8, !tbaa !92
  %217 = call double @llvm.fmuladd.f64(double %211, double %212, double %216)
  store double %217, ptr %215, align 8, !tbaa !92
  %218 = load ptr, ptr %15, align 8, !tbaa !11
  %219 = getelementptr inbounds nuw %struct.IDAMemRec, ptr %218, i32 0, i32 2
  %220 = load ptr, ptr %219, align 8, !tbaa !58
  %221 = load double, ptr %9, align 8, !tbaa !92
  %222 = load ptr, ptr %11, align 8, !tbaa !81
  %223 = load ptr, ptr %12, align 8, !tbaa !81
  %224 = load ptr, ptr %27, align 8, !tbaa !81
  %225 = load ptr, ptr %15, align 8, !tbaa !11
  %226 = getelementptr inbounds nuw %struct.IDAMemRec, ptr %225, i32 0, i32 3
  %227 = load ptr, ptr %226, align 8, !tbaa !64
  %228 = call i32 %220(double noundef %221, ptr noundef %222, ptr noundef %223, ptr noundef %224, ptr noundef %227)
  store i32 %228, ptr %32, align 4, !tbaa !20
  %229 = load ptr, ptr %31, align 8, !tbaa !45
  %230 = getelementptr inbounds nuw %struct.IDALsMemRec, ptr %229, i32 0, i32 22
  %231 = load i64, ptr %230, align 8, !tbaa !114
  %232 = add nsw i64 %231, 1
  store i64 %232, ptr %230, align 8, !tbaa !114
  %233 = load i32, ptr %32, align 4, !tbaa !20
  %234 = icmp ne i32 %233, 0
  br i1 %234, label %235, label %236

235:                                              ; preds = %204
  br label %256

236:                                              ; preds = %204
  %237 = load double, ptr %17, align 8, !tbaa !92
  %238 = fdiv double 1.000000e+00, %237
  store double %238, ptr %18, align 8, !tbaa !92
  %239 = load double, ptr %18, align 8, !tbaa !92
  %240 = load ptr, ptr %27, align 8, !tbaa !81
  %241 = load double, ptr %18, align 8, !tbaa !92
  %242 = fneg double %241
  %243 = load ptr, ptr %13, align 8, !tbaa !81
  %244 = load ptr, ptr %28, align 8, !tbaa !81
  call void @N_VLinearSum(double noundef %239, ptr noundef %240, double noundef %242, ptr noundef %243, ptr noundef %244)
  %245 = load double, ptr %19, align 8, !tbaa !92
  %246 = load ptr, ptr %23, align 8, !tbaa !125
  %247 = load i64, ptr %29, align 8, !tbaa !91
  %248 = getelementptr inbounds double, ptr %246, i64 %247
  store double %245, ptr %248, align 8, !tbaa !92
  %249 = load double, ptr %20, align 8, !tbaa !92
  %250 = load ptr, ptr %24, align 8, !tbaa !125
  %251 = load i64, ptr %29, align 8, !tbaa !91
  %252 = getelementptr inbounds double, ptr %250, i64 %251
  store double %249, ptr %252, align 8, !tbaa !92
  br label %253

253:                                              ; preds = %236
  %254 = load i64, ptr %29, align 8, !tbaa !91
  %255 = add nsw i64 %254, 1
  store i64 %255, ptr %29, align 8, !tbaa !91
  br label %71

256:                                              ; preds = %235, %71
  %257 = load ptr, ptr %28, align 8, !tbaa !81
  call void @N_VSetArrayPointer(ptr noundef null, ptr noundef %257)
  %258 = load ptr, ptr %28, align 8, !tbaa !81
  call void @N_VDestroy(ptr noundef %258)
  %259 = load i32, ptr %32, align 4, !tbaa !20
  call void @llvm.lifetime.end.p0(i64 4, ptr %32) #7
  call void @llvm.lifetime.end.p0(i64 8, ptr %31) #7
  call void @llvm.lifetime.end.p0(i64 8, ptr %30) #7
  call void @llvm.lifetime.end.p0(i64 8, ptr %29) #7
  call void @llvm.lifetime.end.p0(i64 8, ptr %28) #7
  call void @llvm.lifetime.end.p0(i64 8, ptr %27) #7
  call void @llvm.lifetime.end.p0(i64 8, ptr %26) #7
  call void @llvm.lifetime.end.p0(i64 8, ptr %25) #7
  call void @llvm.lifetime.end.p0(i64 8, ptr %24) #7
  call void @llvm.lifetime.end.p0(i64 8, ptr %23) #7
  call void @llvm.lifetime.end.p0(i64 8, ptr %22) #7
  call void @llvm.lifetime.end.p0(i64 8, ptr %21) #7
  call void @llvm.lifetime.end.p0(i64 8, ptr %20) #7
  call void @llvm.lifetime.end.p0(i64 8, ptr %19) #7
  call void @llvm.lifetime.end.p0(i64 8, ptr %18) #7
  call void @llvm.lifetime.end.p0(i64 8, ptr %17) #7
  ret i32 %259
}