; Function Attrs: nounwind uwtable
define i32 @idaLsDenseDQJac(double noundef %0, double noundef %1, ptr noundef %2, ptr noundef %3, ptr noundef %4, ptr noundef %5, ptr noundef readonly captures(none) %6, ptr noundef %7) local_unnamed_addr #0 {
  %9 = getelementptr inbounds nuw i8, ptr %6, i64 1048
  %10 = load ptr, ptr %9, align 8, !tbaa !65
  %11 = tail call i64 @SUNDenseMatrix_Columns(ptr noundef %5) #13
  %12 = tail call ptr @N_VCloneEmpty(ptr noundef %7) #13
  %13 = getelementptr inbounds nuw i8, ptr %6, i64 384
  %14 = load ptr, ptr %13, align 8, !tbaa !101
  %15 = tail call ptr @N_VGetArrayPointer(ptr noundef %14) #13
  %16 = tail call ptr @N_VGetArrayPointer(ptr noundef %2) #13
  %17 = tail call ptr @N_VGetArrayPointer(ptr noundef %3) #13
  %18 = getelementptr inbounds nuw i8, ptr %6, i64 88
  %19 = load i32, ptr %18, align 8, !tbaa !117
  %.not = icmp eq i32 %19, 0
  br i1 %.not, label %24, label %20

20:                                               ; preds = %8
  %21 = getelementptr inbounds nuw i8, ptr %6, i64 440
  %22 = load ptr, ptr %21, align 8, !tbaa !118
  %23 = tail call ptr @N_VGetArrayPointer(ptr noundef %22) #13
  br label %24

24:                                               ; preds = %20, %8
  %.089 = phi ptr [ %23, %20 ], [ null, %8 ]
  %25 = getelementptr inbounds nuw i8, ptr %6, i64 8
  %26 = load double, ptr %25, align 8, !tbaa !119
  %27 = fcmp ugt double %26, 0.000000e+00
  br i1 %27, label %28, label %30

28:                                               ; preds = %24
  %29 = tail call double @sqrt(double noundef %26) #13, !tbaa !62
  br label %30

30:                                               ; preds = %24, %28
  %31 = phi double [ %29, %28 ], [ 0.000000e+00, %24 ]
  %32 = icmp sgt i64 %11, 0
  br i1 %32, label %.lr.ph, label %._crit_edge

.lr.ph:                                           ; preds = %30
  %33 = getelementptr inbounds nuw i8, ptr %6, i64 656
  %34 = getelementptr inbounds nuw i8, ptr %6, i64 16
  %35 = getelementptr inbounds nuw i8, ptr %6, i64 24
  %36 = getelementptr inbounds nuw i8, ptr %10, i64 168
  br label %37

37:                                               ; preds = %.lr.ph, %87
  %.090103 = phi i64 [ 0, %.lr.ph ], [ %90, %87 ]
  %38 = tail call ptr @SUNDenseMatrix_Column(ptr noundef %5, i64 noundef %.090103) #13
  tail call void @N_VSetArrayPointer(ptr noundef %38, ptr noundef %12) #13
  %39 = getelementptr inbounds nuw double, ptr %16, i64 %.090103
  %40 = load double, ptr %39, align 8, !tbaa !113
  %41 = getelementptr inbounds nuw double, ptr %17, i64 %.090103
  %42 = load double, ptr %41, align 8, !tbaa !113
  %43 = tail call double @llvm.fabs.f64(double %40)
  %44 = load double, ptr %33, align 8, !tbaa !120
  %45 = fmul double %42, %44
  %46 = tail call double @llvm.fabs.f64(double %45)
  %47 = fcmp ogt double %43, %46
  %. = select i1 %47, double %43, double %46
  %48 = fmul double %31, %.
  %49 = getelementptr inbounds nuw double, ptr %15, i64 %.090103
  %50 = load double, ptr %49, align 8, !tbaa !113
  %51 = fdiv double 1.000000e+00, %50
  %52 = fcmp ogt double %48, %51
  %53 = select i1 %52, double %48, double %51
  %54 = fcmp olt double %45, 0.000000e+00
  %55 = fneg double %53
  %.087 = select i1 %54, double %55, double %53
  %56 = fadd double %40, %.087
  %57 = fsub double %56, %40
  %58 = load i32, ptr %18, align 8, !tbaa !117
  %.not100 = icmp eq i32 %58, 0
  br i1 %.not100, label %78, label %59

59:                                               ; preds = %37
  %60 = getelementptr inbounds nuw double, ptr %.089, i64 %.090103
  %61 = load double, ptr %60, align 8, !tbaa !113
  %62 = tail call double @llvm.fabs.f64(double %61)
  %63 = fcmp oeq double %62, 1.000000e+00
  br i1 %63, label %64, label %70

64:                                               ; preds = %59
  %65 = fadd double %40, %57
  %66 = fmul double %65, %61
  %67 = fcmp olt double %66, 0.000000e+00
  br i1 %67, label %68, label %78

68:                                               ; preds = %64
  %69 = fneg double %57
  br label %78

70:                                               ; preds = %59
  %71 = fcmp oeq double %62, 2.000000e+00
  br i1 %71, label %72, label %78

72:                                               ; preds = %70
  %73 = fadd double %40, %57
  %74 = fmul double %73, %61
  %75 = fcmp ugt double %74, 0.000000e+00
  br i1 %75, label %78, label %76

76:                                               ; preds = %72
  %77 = fneg double %57
  br label %78

78:                                               ; preds = %68, %64, %72, %76, %70, %37
  %.188 = phi double [ %69, %68 ], [ %57, %64 ], [ %77, %76 ], [ %57, %72 ], [ %57, %70 ], [ %57, %37 ]
  %79 = fadd double %40, %.188
  store double %79, ptr %39, align 8, !tbaa !113
  %80 = load double, ptr %41, align 8, !tbaa !113
  %81 = tail call double @llvm.fmuladd.f64(double %1, double %.188, double %80)
  store double %81, ptr %41, align 8, !tbaa !113
  %82 = load ptr, ptr %34, align 8, !tbaa !50
  %83 = load ptr, ptr %35, align 8, !tbaa !53
  %84 = tail call i32 %82(double noundef %0, ptr noundef %2, ptr noundef %3, ptr noundef %7, ptr noundef %83) #13
  %85 = load i64, ptr %36, align 8, !tbaa !102
  %86 = add nsw i64 %85, 1
  store i64 %86, ptr %36, align 8, !tbaa !102
  %.not101 = icmp eq i32 %84, 0
  br i1 %.not101, label %87, label %._crit_edge

87:                                               ; preds = %78
  %88 = fdiv double 1.000000e+00, %.188
  %89 = fneg double %88
  tail call void @N_VLinearSum(double noundef %88, ptr noundef %7, double noundef %89, ptr noundef %4, ptr noundef %12) #13
  store double %40, ptr %39, align 8, !tbaa !113
  store double %42, ptr %41, align 8, !tbaa !113
  %90 = add nuw nsw i64 %.090103, 1
  %exitcond.not = icmp eq i64 %90, %11
  br i1 %exitcond.not, label %._crit_edge, label %37

._crit_edge:                                      ; preds = %87, %78, %30
  %.1 = phi i32 [ 0, %30 ], [ %84, %78 ], [ 0, %87 ]
  tail call void @N_VSetArrayPointer(ptr noundef null, ptr noundef %12) #13
  tail call void @N_VDestroy(ptr noundef %12) #13
  ret i32 %.1
}